target datalayout = "e-m:e-p270:32:32-p271:32:32-p272:64:64-i64:64-i128:128-f80:128-n8:16:32:64-S128"
target triple = "x86_64-pc-linux-gnu"

%struct.Vmem = type { ptr, i64, i64 }
%union.SourceSpan = type { i64 }
%struct.Expr_ = type { ptr, %union.SourceSpan, i16, %union.anon.61 }
%union.anon.61 = type { %struct.ExprAnySwitch }
%struct.ExprAnySwitch = type { i8, %union.anon.63 }
%union.anon.63 = type { %struct.anon.64 }
%struct.anon.64 = type { ptr, %union.SourceSpan, ptr }
%struct.Type_ = type { i32, ptr, ptr, ptr, %union.anon.86, ptr, ptr, %union.anon.88 }
%union.anon.86 = type { ptr }
%union.anon.88 = type { %struct.TypeFunction }
%struct.TypeFunction = type { ptr, ptr, ptr }
%struct.TypeInfo_ = type { i16, ptr, %union.SourceSpan, %union.anon.23 }
%union.anon.23 = type { %struct.anon.24 }
%struct.anon.24 = type { ptr, ptr }
%struct.ExprCast = type { i8, i32, i32 }

@.str.33 = private unnamed_addr constant [36 x i8] c"FATAL ERROR %s -> in %s @ in %s:%d \00", align 1
@.str.34 = private unnamed_addr constant [22 x i8] c"Should be unreachable\00", align 1
@.str.35 = private unnamed_addr constant [110 x i8] c"generated/home/dtcxzyw/WorkSpace/Projects/compilers/llvm-opt-benchmark/bench/c3c/c3c/src/compiler/sema_expr.c\00", align 1
@.str.37 = private unnamed_addr constant [35 x i8] c"Recursive resolution of expression\00", align 1
@__func__.sema_analyse_expr_lvalue = private unnamed_addr constant [25 x i8] c"sema_analyse_expr_lvalue\00", align 1
@type_info_arena = external global %struct.Vmem, align 8
@expr_arena = external global %struct.Vmem, align 8
@.str.309 = private unnamed_addr constant [44 x i8] c"Casting to an optional type is not allowed.\00", align 1

; Function Attrs: nounwind uwtable
define dso_local zeroext i1 @sema_analyse_expr_lvalue(ptr noundef %0, ptr noundef %1) #0 {
  %3 = alloca ptr, align 8
  %4 = alloca ptr, align 8
  %5 = alloca ptr, align 8
  %6 = alloca i1, align 1
  %7 = alloca ptr, align 8
  %8 = alloca ptr, align 8
  store ptr %0, ptr %7, align 8
  store ptr %1, ptr %8, align 8
  %9 = load ptr, ptr %8, align 8
  %10 = getelementptr inbounds %struct.Expr_, ptr %9, i32 0, i32 2
  %11 = load i16, ptr %10, align 8
  %12 = lshr i16 %11, 8
  %13 = and i16 %12, 15
  %14 = zext i16 %13 to i32
  switch i32 %14, label %69 [
    i32 0, label %15
    i32 1, label %41
    i32 2, label %56
  ]

15:                                               ; preds = %2
  %16 = load ptr, ptr %8, align 8
  %17 = getelementptr inbounds %struct.Expr_, ptr %16, i32 0, i32 2
  %18 = load i16, ptr %17, align 8
  %19 = and i16 %18, -3841
  %20 = or i16 %19, 256
  store i16 %20, ptr %17, align 8
  %21 = load ptr, ptr %7, align 8
  %22 = load ptr, ptr %8, align 8
  %23 = call zeroext i1 @sema_analyse_expr_dispatch(ptr noundef %21, ptr noundef %22)
  br i1 %23, label %35, label %24

24:                                               ; preds = %15
  %25 = load ptr, ptr %8, align 8
  store ptr %25, ptr %4, align 8
  %26 = load ptr, ptr %4, align 8
  %27 = getelementptr inbounds %struct.Expr_, ptr %26, i32 0, i32 2
  %28 = load i16, ptr %27, align 8
  %29 = and i16 %28, -256
  store i16 %29, ptr %27, align 8
  %30 = load ptr, ptr %4, align 8
  %31 = getelementptr inbounds %struct.Expr_, ptr %30, i32 0, i32 2
  %32 = load i16, ptr %31, align 8
  %33 = and i16 %32, -3841
  %34 = or i16 %33, 512
  store i16 %34, ptr %31, align 8
  store i1 false, ptr %6, align 1
  br label %72

35:                                               ; preds = %15
  %36 = load ptr, ptr %8, align 8
  %37 = getelementptr inbounds %struct.Expr_, ptr %36, i32 0, i32 2
  %38 = load i16, ptr %37, align 8
  %39 = and i16 %38, -3841
  %40 = or i16 %39, 512
  store i16 %40, ptr %37, align 8
  store i1 true, ptr %6, align 1
  br label %72

41:                                               ; preds = %2
  %42 = load ptr, ptr %8, align 8
  %43 = getelementptr inbounds %struct.Expr_, ptr %42, i32 0, i32 1
  %44 = getelementptr inbounds %union.SourceSpan, ptr %43, i32 0, i32 0
  %45 = load i64, ptr %44, align 8
  call void (i64, ptr, ...) @sema_error_at(i64 %45, ptr noundef @.str.37)
  %46 = load ptr, ptr %8, align 8
  store ptr %46, ptr %5, align 8
  %47 = load ptr, ptr %5, align 8
  %48 = getelementptr inbounds %struct.Expr_, ptr %47, i32 0, i32 2
  %49 = load i16, ptr %48, align 8
  %50 = and i16 %49, -256
  store i16 %50, ptr %48, align 8
  %51 = load ptr, ptr %5, align 8
  %52 = getelementptr inbounds %struct.Expr_, ptr %51, i32 0, i32 2
  %53 = load i16, ptr %52, align 8
  %54 = and i16 %53, -3841
  %55 = or i16 %54, 512
  store i16 %55, ptr %52, align 8
  store i1 false, ptr %6, align 1
  br label %72

56:                                               ; preds = %2
  %57 = load ptr, ptr %8, align 8
  store ptr %57, ptr %3, align 8
  %58 = load ptr, ptr %3, align 8
  %59 = icmp eq ptr %58, null
  br i1 %59, label %67, label %60

60:                                               ; preds = %56
  %61 = load ptr, ptr %3, align 8
  %62 = getelementptr inbounds %struct.Expr_, ptr %61, i32 0, i32 2
  %63 = load i16, ptr %62, align 8
  %64 = and i16 %63, 255
  %65 = zext i16 %64 to i32
  %66 = icmp ne i32 %65, 0
  br label %67

67:                                               ; preds = %60, %56
  %68 = phi i1 [ true, %56 ], [ %66, %60 ]
  store i1 %68, ptr %6, align 1
  br label %72

69:                                               ; preds = %2
  br label %70

70:                                               ; preds = %69
  call void (ptr, ...) @error_exit(ptr noundef @.str.33, ptr noundef @.str.34, ptr noundef @__func__.sema_analyse_expr_lvalue, ptr noundef @.str.35, i32 noundef 8634) #6
  unreachable

71:                                               ; No predecessors!
  br label %72

72:                                               ; preds = %71, %67, %41, %35, %24
  %73 = load i1, ptr %6, align 1
  ret i1 %73
}

; Function Attrs: nounwind uwtable
define dso_local zeroext i1 @sema_analyse_expr(ptr noundef %0, ptr noundef %1) #0 {
  %3 = alloca ptr, align 8
  %4 = alloca ptr, align 8
  store ptr %0, ptr %3, align 8
  store ptr %1, ptr %4, align 8
  %5 = load ptr, ptr %3, align 8
  %6 = load ptr, ptr %4, align 8
  %7 = call zeroext i1 @sema_analyse_expr_lvalue(ptr noundef %5, ptr noundef %6)
  br i1 %7, label %8, label %12

8:                                                ; preds = %2
  %9 = load ptr, ptr %3, align 8
  %10 = load ptr, ptr %4, align 8
  %11 = call zeroext i1 @sema_cast_rvalue(ptr noundef %9, ptr noundef %10)
  br label %12

12:                                               ; preds = %8, %2
  %13 = phi i1 [ false, %2 ], [ %11, %8 ]
  ret i1 %13
}

; Function Attrs: nounwind uwtable
define internal ptr @type_infoptr(i32 noundef %0) #0 {
  %2 = alloca i32, align 4
  store i32 %0, ptr %2, align 4
  %3 = load ptr, ptr @type_info_arena, align 8
  %4 = load i32, ptr %2, align 4
  %5 = zext i32 %4 to i64
  %6 = getelementptr inbounds %struct.TypeInfo_, ptr %3, i64 %5
  ret ptr %6
}

; Function Attrs: nounwind uwtable
define internal ptr @exprptr(i32 noundef %0) #0 {
  %2 = alloca i32, align 4
  store i32 %0, ptr %2, align 4
  %3 = load ptr, ptr @expr_arena, align 8
  %4 = load i32, ptr %2, align 4
  %5 = zext i32 %4 to i64
  %6 = getelementptr inbounds %struct.Expr_, ptr %3, i64 %5
  ret ptr %6
}

; Function Attrs: nounwind uwtable
define internal zeroext i1 @sema_expr_analyse_cast(ptr noundef %0, ptr noundef %1, ptr noundef %2) #0 {
  %4 = alloca ptr, align 8
  %5 = alloca ptr, align 8
  %6 = alloca ptr, align 8
  %7 = alloca %union.SourceSpan, align 8
  %8 = alloca i1, align 1
  %9 = alloca ptr, align 8
  %10 = alloca i32, align 4
  %11 = alloca i1, align 1
  %12 = alloca ptr, align 8
  %13 = alloca ptr, align 8
  %14 = alloca ptr, align 8
  %15 = alloca ptr, align 8
  %16 = alloca ptr, align 8
  %17 = alloca i8, align 1
  %18 = alloca ptr, align 8
  store ptr %0, ptr %12, align 8
  store ptr %1, ptr %13, align 8
  store ptr %2, ptr %14, align 8
  %19 = load ptr, ptr %14, align 8
  %20 = icmp ne ptr %19, null
  br i1 %20, label %21, label %23

21:                                               ; preds = %3
  %22 = load ptr, ptr %14, align 8
  store i8 0, ptr %22, align 1
  br label %23

23:                                               ; preds = %21, %3
  %24 = load ptr, ptr %13, align 8
  %25 = getelementptr inbounds %struct.Expr_, ptr %24, i32 0, i32 3
  %26 = getelementptr inbounds %struct.ExprCast, ptr %25, i32 0, i32 1
  %27 = load i32, ptr %26, align 4
  %28 = call ptr @exprptr(i32 noundef %27)
  store ptr %28, ptr %15, align 8
  %29 = load ptr, ptr %13, align 8
  %30 = getelementptr inbounds %struct.Expr_, ptr %29, i32 0, i32 3
  %31 = getelementptr inbounds %struct.ExprCast, ptr %30, i32 0, i32 2
  %32 = load i32, ptr %31, align 8
  %33 = call ptr @type_infoptr(i32 noundef %32)
  store ptr %33, ptr %16, align 8
  %34 = load ptr, ptr %12, align 8
  %35 = load ptr, ptr %16, align 8
  %36 = call zeroext i1 @sema_resolve_type_info(ptr noundef %34, ptr noundef %35, i32 noundef 0)
  %37 = zext i1 %36 to i8
  store i8 %37, ptr %17, align 1
  %38 = load ptr, ptr %12, align 8
  %39 = load ptr, ptr %15, align 8
  %40 = call zeroext i1 @sema_analyse_expr(ptr noundef %38, ptr noundef %39)
  br i1 %40, label %41, label %44

41:                                               ; preds = %23
  %42 = load i8, ptr %17, align 1
  %43 = trunc i8 %42 to i1
  br i1 %43, label %45, label %44

44:                                               ; preds = %41, %23
  store i1 false, ptr %11, align 1
  br label %112

45:                                               ; preds = %41
  %46 = load ptr, ptr %16, align 8
  %47 = getelementptr inbounds %struct.TypeInfo_, ptr %46, i32 0, i32 1
  %48 = load ptr, ptr %47, align 8
  store ptr %48, ptr %18, align 8
  %49 = load ptr, ptr %18, align 8
  store ptr %49, ptr %9, align 8
  %50 = load ptr, ptr %9, align 8
  %51 = icmp ne ptr %50, null
  br i1 %51, label %53, label %52

52:                                               ; preds = %45
  store i1 false, ptr %8, align 1
  br label %66

53:                                               ; preds = %45
  %54 = load ptr, ptr %9, align 8
  %55 = load i32, ptr %54, align 8
  store i32 %55, ptr %10, align 4
  %56 = load i32, ptr %10, align 4
  %57 = icmp eq i32 %56, 31
  br i1 %57, label %58, label %63

58:                                               ; preds = %53
  %59 = load ptr, ptr %9, align 8
  %60 = getelementptr inbounds %struct.Type_, ptr %59, i32 0, i32 1
  %61 = load ptr, ptr %60, align 8
  %62 = load i32, ptr %61, align 8
  store i32 %62, ptr %10, align 4
  br label %63

63:                                               ; preds = %58, %53
  %64 = load i32, ptr %10, align 4
  %65 = icmp eq i32 %64, 40
  store i1 %65, ptr %8, align 1
  br label %66

66:                                               ; preds = %63, %52
  %67 = load i1, ptr %8, align 1
  br i1 %67, label %68, label %75

68:                                               ; preds = %66
  br label %69

69:                                               ; preds = %68
  %70 = load ptr, ptr %16, align 8
  %71 = getelementptr inbounds %struct.TypeInfo_, ptr %70, i32 0, i32 2
  %72 = getelementptr inbounds %union.SourceSpan, ptr %71, i32 0, i32 0
  %73 = load i64, ptr %72, align 8
  call void (i64, ptr, ...) @sema_error_at(i64 %73, ptr noundef @.str.309)
  store i1 false, ptr %11, align 1
  br label %112

74:                                               ; No predecessors!
  br label %75

75:                                               ; preds = %74, %66
  %76 = load ptr, ptr %14, align 8
  %77 = icmp ne ptr %76, null
  br i1 %77, label %78, label %86

78:                                               ; preds = %75
  %79 = load ptr, ptr %12, align 8
  %80 = load ptr, ptr %15, align 8
  %81 = load ptr, ptr %18, align 8
  %82 = call zeroext i1 @cast_explicit_silent(ptr noundef %79, ptr noundef %80, ptr noundef %81)
  br i1 %82, label %85, label %83

83:                                               ; preds = %78
  %84 = load ptr, ptr %14, align 8
  store i8 1, ptr %84, align 1
  store i1 false, ptr %11, align 1
  br label %112

85:                                               ; preds = %78
  br label %103

86:                                               ; preds = %75
  %87 = load ptr, ptr %12, align 8
  %88 = load ptr, ptr %15, align 8
  %89 = load ptr, ptr %18, align 8
  %90 = call zeroext i1 @cast_explicit(ptr noundef %87, ptr noundef %88, ptr noundef %89)
  br i1 %90, label %102, label %91

91:                                               ; preds = %86
  %92 = load ptr, ptr %13, align 8
  store ptr %92, ptr %4, align 8
  %93 = load ptr, ptr %4, align 8
  %94 = getelementptr inbounds %struct.Expr_, ptr %93, i32 0, i32 2
  %95 = load i16, ptr %94, align 8
  %96 = and i16 %95, -256
  store i16 %96, ptr %94, align 8
  %97 = load ptr, ptr %4, align 8
  %98 = getelementptr inbounds %struct.Expr_, ptr %97, i32 0, i32 2
  %99 = load i16, ptr %98, align 8
  %100 = and i16 %99, -3841
  %101 = or i16 %100, 512
  store i16 %101, ptr %98, align 8
  store i1 false, ptr %11, align 1
  br label %112

102:                                              ; preds = %86
  br label %103

103:                                              ; preds = %102, %85
  %104 = load ptr, ptr %13, align 8
  %105 = load ptr, ptr %15, align 8
  store ptr %104, ptr %5, align 8
  store ptr %105, ptr %6, align 8
  %106 = load ptr, ptr %5, align 8
  %107 = getelementptr inbounds %struct.Expr_, ptr %106, i32 0, i32 1
  call void @llvm.memcpy.p0.p0.i64(ptr align 8 %7, ptr align 8 %107, i64 8, i1 false)
  %108 = load ptr, ptr %5, align 8
  %109 = load ptr, ptr %6, align 8
  call void @llvm.memcpy.p0.p0.i64(ptr align 8 %108, ptr align 8 %109, i64 56, i1 false)
  %110 = load ptr, ptr %5, align 8
  %111 = getelementptr inbounds %struct.Expr_, ptr %110, i32 0, i32 1
  call void @llvm.memcpy.p0.p0.i64(ptr align 8 %111, ptr align 8 %7, i64 8, i1 false)
  store i1 true, ptr %11, align 1
  br label %112

112:                                              ; preds = %103, %91, %83, %69, %44
  %113 = load i1, ptr %11, align 1
  ret i1 %113
}