; Function Attrs: nounwind uwtable
define internal fastcc noundef zeroext i1 @sema_expr_analyse_cast(ptr noundef %0, ptr nocapture noundef %1, ptr noundef writeonly %2) unnamed_addr #0 {
  %.not = icmp eq ptr %2, null
  br i1 %.not, label %5, label %4

4:                                                ; preds = %3
  store i8 0, ptr %2, align 1
  br label %5

5:                                                ; preds = %4, %3
  %6 = getelementptr inbounds i8, ptr %1, i64 28
  %7 = load i32, ptr %6, align 4
  %8 = load ptr, ptr @expr_arena, align 8
  %9 = zext i32 %7 to i64
  %10 = getelementptr inbounds %struct.Expr_, ptr %8, i64 %9
  %11 = getelementptr inbounds i8, ptr %1, i64 32
  %12 = load i32, ptr %11, align 8
  %13 = load ptr, ptr @type_info_arena, align 8
  %14 = zext i32 %12 to i64
  %15 = getelementptr inbounds %struct.TypeInfo_, ptr %13, i64 %14
  %16 = tail call zeroext i1 @sema_resolve_type_info(ptr noundef %0, ptr noundef %15, i32 noundef 0) #13
  %17 = getelementptr inbounds i8, ptr %10, i64 16
  %18 = load i16, ptr %17, align 8
  %19 = lshr i16 %18, 8
  %20 = and i16 %19, 15
  switch i16 %20, label %37 [
    i16 0, label %21
    i16 1, label %31
    i16 2, label %sema_analyse_expr_lvalue.exit
  ]

21:                                               ; preds = %5
  %22 = and i16 %18, -3841
  %23 = or disjoint i16 %22, 256
  store i16 %23, ptr %17, align 8
  %24 = tail call fastcc zeroext i1 @sema_analyse_expr_dispatch(ptr noundef %0, ptr noundef nonnull %10)
  %25 = load i16, ptr %17, align 8
  br i1 %24, label %sema_analyse_expr_lvalue.exit.thread48, label %26

26:                                               ; preds = %21
  %27 = and i16 %25, -4096
  %28 = or disjoint i16 %27, 512
  store i16 %28, ptr %17, align 8
  br label %sema_analyse_expr.exit.thread

sema_analyse_expr_lvalue.exit.thread48:           ; preds = %21
  %29 = and i16 %25, -3841
  %30 = or disjoint i16 %29, 512
  store i16 %30, ptr %17, align 8
  br label %sema_analyse_expr.exit

31:                                               ; preds = %5
  %32 = getelementptr inbounds i8, ptr %10, i64 8
  %33 = load i64, ptr %32, align 8
  tail call void (i64, ptr, ...) @sema_error_at(i64 %33, ptr noundef nonnull @.str.37) #13
  %34 = load i16, ptr %17, align 8
  %35 = and i16 %34, -4096
  %36 = or disjoint i16 %35, 512
  store i16 %36, ptr %17, align 8
  br label %sema_analyse_expr.exit.thread

37:                                               ; preds = %5
  tail call void (ptr, ...) @error_exit(ptr noundef nonnull @.str.33, ptr noundef nonnull @.str.34, ptr noundef nonnull @__func__.sema_analyse_expr_lvalue, ptr noundef nonnull @.str.35, i32 noundef 8634) #14
  unreachable

sema_analyse_expr_lvalue.exit:                    ; preds = %5
  %38 = and i16 %18, 255
  %.not50 = icmp eq i16 %38, 0
  br i1 %.not50, label %sema_analyse_expr.exit.thread, label %sema_analyse_expr.exit

sema_analyse_expr.exit:                           ; preds = %sema_analyse_expr_lvalue.exit.thread48, %sema_analyse_expr_lvalue.exit
  %39 = tail call fastcc zeroext i1 @sema_cast_rvalue(ptr noundef %0, ptr noundef nonnull %10)
  %40 = select i1 %39, i1 %16, i1 false
  br i1 %40, label %41, label %sema_analyse_expr.exit.thread

41:                                               ; preds = %sema_analyse_expr.exit
  %42 = getelementptr inbounds i8, ptr %15, i64 8
  %43 = load ptr, ptr %42, align 8
  %.not41 = icmp eq ptr %43, null
  br i1 %.not41, label %.critedge, label %44

44:                                               ; preds = %41
  %45 = load i32, ptr %43, align 8
  %46 = icmp eq i32 %45, 31
  br i1 %46, label %47, label %51

47:                                               ; preds = %44
  %48 = getelementptr inbounds i8, ptr %43, i64 8
  %49 = load ptr, ptr %48, align 8
  %50 = load i32, ptr %49, align 8
  br label %51

51:                                               ; preds = %47, %44
  %.036 = phi i32 [ %50, %47 ], [ %45, %44 ]
  %52 = icmp eq i32 %.036, 40
  br i1 %52, label %53, label %.critedge

53:                                               ; preds = %51
  %54 = getelementptr inbounds i8, ptr %15, i64 16
  %55 = load i64, ptr %54, align 8
  tail call void (i64, ptr, ...) @sema_error_at(i64 %55, ptr noundef nonnull @.str.309) #13
  br label %sema_analyse_expr.exit.thread

.critedge:                                        ; preds = %41, %51
  br i1 %.not, label %59, label %56

56:                                               ; preds = %.critedge
  %57 = tail call zeroext i1 @cast_explicit_silent(ptr noundef %0, ptr noundef nonnull %10, ptr noundef %43) #13
  br i1 %57, label %66, label %58

58:                                               ; preds = %56
  store i8 1, ptr %2, align 1
  br label %sema_analyse_expr.exit.thread

59:                                               ; preds = %.critedge
  %60 = tail call zeroext i1 @cast_explicit(ptr noundef %0, ptr noundef nonnull %10, ptr noundef %43) #13
  br i1 %60, label %66, label %61

61:                                               ; preds = %59
  %62 = getelementptr inbounds i8, ptr %1, i64 16
  %63 = load i16, ptr %62, align 8
  %64 = and i16 %63, -4096
  %65 = or disjoint i16 %64, 512
  store i16 %65, ptr %62, align 8
  br label %sema_analyse_expr.exit.thread

66:                                               ; preds = %59, %56
  %67 = getelementptr inbounds i8, ptr %1, i64 8
  %.sroa.0.0.copyload = load i64, ptr %67, align 8
  tail call void @llvm.memcpy.p0.p0.i64(ptr noundef nonnull align 8 dereferenceable(56) %1, ptr noundef nonnull align 8 dereferenceable(56) %10, i64 56, i1 false)
  store i64 %.sroa.0.0.copyload, ptr %67, align 8
  br label %sema_analyse_expr.exit.thread

sema_analyse_expr.exit.thread:                    ; preds = %26, %31, %sema_analyse_expr_lvalue.exit, %sema_analyse_expr.exit, %66, %61, %58, %53
  %.037 = phi i1 [ false, %53 ], [ true, %66 ], [ false, %58 ], [ false, %61 ], [ false, %sema_analyse_expr.exit ], [ false, %sema_analyse_expr_lvalue.exit ], [ false, %31 ], [ false, %26 ]
  ret i1 %.037
}